; Function Attrs: nounwind uwtable
define ptr @l_Lake_mkDeclValWhere_x3f(ptr noundef %0) local_unnamed_addr #0 {
  %2 = tail call zeroext i8 @l_Array_isEmpty___rarg(ptr noundef %0) #6
  %3 = icmp eq i8 %2, 0
  br i1 %3, label %4, label %38

4:                                                ; preds = %1
  %5 = load ptr, ptr @l_Lake_mkDeclValWhere_x3f___closed__10, align 8, !tbaa !12
  %6 = tail call ptr @l_Lean_Syntax_SepArray_ofElems(ptr noundef %5, ptr noundef %0) #6
  %7 = load ptr, ptr @l_Lake_instToLeanArrayMkStr1___rarg___closed__8, align 8, !tbaa !12
  %8 = tail call ptr @l_Array_append___rarg(ptr noundef %7, ptr noundef %6) #6
  %9 = ptrtoint ptr %6 to i64
  %10 = and i64 %9, 1
  %.not = icmp eq i64 %10, 0
  br i1 %.not, label %11, label %lean_dec.exit

11:                                               ; preds = %4
  %12 = load i32, ptr %6, align 4, !tbaa !8
  %13 = icmp sgt i32 %12, 1
  br i1 %13, label %14, label %16, !prof !11

14:                                               ; preds = %11
  %15 = add nsw i32 %12, -1
  store i32 %15, ptr %6, align 4, !tbaa !8
  br label %lean_dec.exit

16:                                               ; preds = %11
  %.not.i = icmp eq i32 %12, 0
  br i1 %.not.i, label %lean_dec.exit, label %17

17:                                               ; preds = %16
  tail call void @lean_dec_ref_cold(ptr noundef nonnull %6) #6
  br label %lean_dec.exit

lean_dec.exit:                                    ; preds = %17, %16, %14, %4
  %18 = load ptr, ptr @l_Lake_instToLeanArrayMkStr1___rarg___closed__1, align 8, !tbaa !12
  %19 = load ptr, ptr @l_Lake_instToLeanArrayMkStr1___rarg___closed__7, align 8, !tbaa !12
  tail call void @lean_inc_heartbeat() #6
  %20 = tail call noalias ptr @mi_malloc_small(i64 noundef 32) #6
  %21 = icmp eq ptr %20, null
  br i1 %21, label %22, label %lean_alloc_ctor.exit

22:                                               ; preds = %lean_dec.exit
  tail call void @lean_internal_panic_out_of_memory() #7
  unreachable

lean_alloc_ctor.exit:                             ; preds = %lean_dec.exit
  %23 = getelementptr inbounds nuw i8, ptr %20, i64 4
  store i32 1, ptr %20, align 4, !tbaa !8
  store i32 16973856, ptr %23, align 4
  %24 = getelementptr inbounds nuw i8, ptr %20, i64 8
  store ptr %18, ptr %24, align 8, !tbaa !12
  %25 = getelementptr inbounds nuw i8, ptr %20, i64 16
  store ptr %19, ptr %25, align 8, !tbaa !12
  %26 = getelementptr inbounds nuw i8, ptr %20, i64 24
  store ptr %8, ptr %26, align 8, !tbaa !12
  %27 = load ptr, ptr @l_Lake_mkDeclValWhere_x3f___closed__9, align 8, !tbaa !12
  %28 = tail call ptr @l_Lean_Syntax_node1(ptr noundef %18, ptr noundef %27, ptr noundef nonnull %20) #6
  %29 = load ptr, ptr @l_Lake_mkDeclValWhere_x3f___closed__2, align 8, !tbaa !12
  %30 = load ptr, ptr @l_Lake_mkDeclValWhere_x3f___closed__4, align 8, !tbaa !12
  %31 = load ptr, ptr @l_Lake_mkDeclValWhere_x3f___closed__11, align 8, !tbaa !12
  %32 = tail call ptr @l_Lean_Syntax_node3(ptr noundef %18, ptr noundef %29, ptr noundef %30, ptr noundef %28, ptr noundef %31) #6
  tail call void @lean_inc_heartbeat() #6
  %33 = tail call noalias ptr @mi_malloc_small(i64 noundef 16) #6
  %34 = icmp eq ptr %33, null
  br i1 %34, label %35, label %lean_alloc_ctor.exit25

35:                                               ; preds = %lean_alloc_ctor.exit
  tail call void @lean_internal_panic_out_of_memory() #7
  unreachable

lean_alloc_ctor.exit25:                           ; preds = %lean_alloc_ctor.exit
  %36 = getelementptr inbounds nuw i8, ptr %33, i64 4
  store i32 1, ptr %33, align 4, !tbaa !8
  store i32 16842768, ptr %36, align 4
  %37 = getelementptr inbounds nuw i8, ptr %33, i64 8
  store ptr %32, ptr %37, align 8, !tbaa !12
  br label %38

38:                                               ; preds = %1, %lean_alloc_ctor.exit25
  %.0 = phi ptr [ %33, %lean_alloc_ctor.exit25 ], [ inttoptr (i64 1 to ptr), %1 ]
  ret ptr %.0
}